(dp1
S'18.20'
p2
(lp3
S'958'
p4
aS'959'
p5
asS'18.21'
p6
(lp7
S'960'
p8
aS'961'
p9
aS'962'
p10
aS'963'
p11
aS'964'
p12
aS'965'
p13
aS'966'
p14
aS'967'
p15
aS'968'
p16
aS'969'
p17
aS'970'
p18
aS'971'
p19
aS'972'
p20
aS'973'
p21
aS'974'
p22
aS'975'
p23
aS'976'
p24
aS'977'
p25
aS'978'
p26
aS'979'
p27
asS'18.22'
p28
(lp29
S'980'
p30
aS'981'
p31
aS'982'
p32
aS'983'
p33
aS'984'
p34
aS'985'
p35
aS'986'
p36
aS'987'
p37
aS'988'
p38
aS'989'
p39
asS'18.23'
p40
(lp41
S'990'
p42
aS'991'
p43
aS'992'
p44
aS'993'
p45
aS'994'
p46
aS'995'
p47
asS'18.24'
p48
(lp49
S'996'
p50
aS'997'
p51
aS'998'
p52
aS'999'
p53
asS'7.2'
p54
(lp55
S'380'
p56
aS'381'
p57
aS'382'
p58
aS'383'
p59
aS'384'
p60
aS'385'
p61
aS'386'
p62
aS'387'
p63
aS'388'
p64
aS'389'
p65
asS'7.1'
p66
(lp67
S'360'
p68
aS'361'
p69
aS'362'
p70
aS'363'
p71
aS'364'
p72
aS'365'
p73
aS'366'
p74
aS'367'
p75
aS'368'
p76
aS'369'
p77
aS'370'
p78
aS'371'
p79
aS'372'
p80
aS'373'
p81
aS'374'
p82
aS'375'
p83
aS'376'
p84
aS'377'
p85
aS'378'
p86
aS'379'
p87
asS'1.16'
p88
(lp89
S'137'
p90
aS'138'
p91
aS'139'
p92
asS'1.14'
p93
(lp94
S'120'
p95
aS'121'
p96
aS'122'
p97
aS'123'
p98
aS'124'
p99
aS'125'
p100
aS'126'
p101
aS'127'
p102
aS'128'
p103
aS'129'
p104
asS'1.15'
p105
(lp106
S'130'
p107
aS'131'
p108
aS'132'
p109
aS'133'
p110
aS'134'
p111
aS'135'
p112
aS'136'
p113
asS'1.12'
p114
(lp115
S'100'
p116
aS'101'
p117
aS'102'
p118
aS'103'
p119
aS'104'
p120
asS'1.13'
p121
(lp122
S'110'
p123
aS'111'
p124
aS'112'
p125
aS'113'
p126
aS'114'
p127
aS'115'
p128
aS'116'
p129
aS'117'
p130
aS'118'
p131
asS'1.10'
p132
(lp133
S'080'
p134
aS'081'
p135
aS'082'
p136
aS'083'
p137
aS'084'
p138
aS'085'
p139
aS'086'
p140
aS'087'
p141
aS'088'
p142
asS'1.11'
p143
(lp144
S'090'
p145
aS'091'
p146
aS'092'
p147
aS'093'
p148
aS'094'
p149
aS'095'
p150
aS'096'
p151
aS'097'
p152
aS'098'
p153
aS'099'
p154
asS'12.2'
p155
(lp156
S'634'
p157
aS'635'
p158
aS'636'
p159
aS'637'
p160
aS'638'
p161
aS'639'
p162
asS'12.1'
p163
(lp164
S'630'
p165
aS'631'
p166
aS'632'
p167
aS'633'
p168
asS'12.7'
p169
(lp170
S'678'
p171
aS'679'
p172
asS'12.6'
p173
(lp174
S'670'
p175
aS'671'
p176
aS'672'
p177
aS'673'
p178
aS'674'
p179
aS'675'
p180
aS'676'
p181
aS'677'
p182
asS'12.5'
p183
(lp184
S'660'
p185
aS'661'
p186
aS'662'
p187
aS'663'
p188
aS'664'
p189
aS'665'
p190
aS'666'
p191
aS'667'
p192
aS'668'
p193
aS'669'
p194
asS'2.9'
p195
(lp196
S'209'
p197
asS'2.8'
p198
(lp199
S'200'
p200
aS'201'
p201
aS'202'
p202
aS'203'
p203
aS'204'
p204
aS'205'
p205
aS'206'
p206
aS'207'
p207
aS'208'
p208
asS'2.3'
p209
(lp210
S'160'
p211
aS'161'
p212
aS'162'
p213
aS'163'
p214
aS'164'
p215
aS'165'
p216
asS'2.2'
p217
(lp218
S'150'
p219
aS'151'
p220
aS'152'
p221
aS'153'
p222
aS'154'
p223
aS'155'
p224
aS'156'
p225
aS'157'
p226
aS'158'
p227
aS'159'
p228
asS'2.1'
p229
(lp230
S'140'
p231
aS'141'
p232
aS'142'
p233
aS'143'
p234
aS'144'
p235
aS'145'
p236
aS'146'
p237
aS'147'
p238
aS'148'
p239
aS'149'
p240
asS'2.7'
p241
(lp242
S'190'
p243
aS'191'
p244
aS'192'
p245
aS'193'
p246
aS'194'
p247
aS'195'
p248
aS'196'
p249
aS'197'
p250
aS'198'
p251
aS'199'
p252
asS'2.6'
p253
(lp254
S'179'
p255
aS'180'
p256
aS'181'
p257
aS'182'
p258
aS'183'
p259
aS'184'
p260
aS'185'
p261
aS'186'
p262
aS'187'
p263
aS'188'
p264
aS'189'
p265
asS'2.5'
p266
(lp267
S'176'
p268
asS'2.4'
p269
(lp270
S'170'
p271
aS'171'
p272
aS'172'
p273
aS'173'
p274
aS'174'
p275
aS'175'
p276
asS'15.10'
p277
(lp278
S'758'
p279
asS'15.11'
p280
(lp281
S'759'
p282
asS'8.1'
p283
(lp284
S'390'
p285
aS'391'
p286
aS'392'
p287
asS'8.3'
p288
(lp289
S'401'
p290
aS'402'
p291
aS'403'
p292
aS'404'
p293
aS'405'
p294
asS'8.2'
p295
(lp296
S'393'
p297
aS'394'
p298
aS'395'
p299
aS'396'
p300
aS'397'
p301
aS'398'
p302
asS'8.5'
p303
(lp304
S'415'
p305
aS'416'
p306
aS'417'
p307
asS'8.4'
p308
(lp309
S'410'
p310
aS'411'
p311
aS'412'
p312
aS'413'
p313
aS'414'
p314
asS'8.7'
p315
(lp316
S'430'
p317
aS'431'
p318
aS'432'
p319
aS'433'
p320
aS'434'
p321
aS'435'
p322
aS'436'
p323
aS'437'
p324
aS'438'
p325
asS'8.6'
p326
(lp327
S'420'
p328
aS'421'
p329
aS'422'
p330
aS'423'
p331
aS'424'
p332
aS'425'
p333
aS'426'
p334
aS'427'
p335
aS'428'
p336
aS'429'
p337
asS'8.9'
p338
(lp339
S'451'
p340
aS'452'
p341
aS'453'
p342
aS'454'
p343
aS'455'
p344
aS'456'
p345
aS'457'
p346
aS'458'
p347
aS'459'
p348
asS'8.8'
p349
(lp350
S'440'
p351
aS'441'
p352
aS'442'
p353
aS'443'
p354
aS'444'
p355
aS'445'
p356
aS'446'
p357
aS'447'
p358
aS'448'
p359
aS'449'
p360
asS'19.23'
p361
(lp362
S'E970'
p363
aS'E971'
p364
aS'E972'
p365
aS'E973'
p366
aS'E974'
p367
aS'E975'
p368
aS'E976'
p369
aS'E977'
p370
aS'E978'
p371
asS'19.22'
p372
(lp373
S'E960'
p374
aS'E961'
p375
aS'E962'
p376
aS'E963'
p377
aS'E964'
p378
aS'E965'
p379
aS'E966'
p380
aS'E967'
p381
aS'E968'
p382
aS'E969'
p383
asS'19.21'
p384
(lp385
S'E950'
p386
aS'E951'
p387
aS'E952'
p388
aS'E953'
p389
aS'E954'
p390
aS'E955'
p391
aS'E956'
p392
aS'E957'
p393
aS'E958'
p394
aS'E959'
p395
asS'19.20'
p396
(lp397
S'E930'
p398
aS'E931'
p399
aS'E932'
p400
aS'E933'
p401
aS'E934'
p402
aS'E935'
p403
aS'E936'
p404
aS'E937'
p405
aS'E938'
p406
aS'E939'
p407
aS'E940'
p408
aS'E941'
p409
aS'E942'
p410
aS'E943'
p411
aS'E944'
p412
aS'E945'
p413
aS'E946'
p414
aS'E947'
p415
aS'E948'
p416
aS'E949'
p417
asS'19.26'
p418
(lp419
S'E990'
p420
aS'E991'
p421
aS'E992'
p422
aS'E993'
p423
aS'E994'
p424
aS'E995'
p425
aS'E996'
p426
aS'E997'
p427
aS'E998'
p428
aS'E999'
p429
asS'19.25'
p430
(lp431
S'E980'
p432
aS'E981'
p433
aS'E982'
p434
aS'E983'
p435
aS'E984'
p436
aS'E985'
p437
aS'E986'
p438
aS'E987'
p439
aS'E988'
p440
aS'E989'
p441
asS'19.24'
p442
(lp443
S'E979'
p444
asS'18.11'
p445
(lp446
S'890'
p447
aS'891'
p448
aS'892'
p449
aS'893'
p450
aS'894'
p451
aS'895'
p452
aS'896'
p453
aS'897'
p454
asS'18.10'
p455
(lp456
S'880'
p457
aS'881'
p458
aS'882'
p459
aS'883'
p460
aS'884'
p461
aS'885'
p462
aS'886'
p463
aS'887'
p464
asS'18.13'
p465
(lp466
S'905'
p467
aS'906'
p468
aS'907'
p469
aS'908'
p470
aS'909'
p471
asS'18.12'
p472
(lp473
S'900'
p474
aS'901'
p475
aS'902'
p476
aS'903'
p477
aS'904'
p478
asS'18.15'
p479
(lp480
S'920'
p481
aS'921'
p482
aS'922'
p483
aS'923'
p484
aS'924'
p485
asS'18.14'
p486
(lp487
S'910'
p488
aS'911'
p489
aS'912'
p490
aS'913'
p491
aS'914'
p492
aS'915'
p493
aS'916'
p494
aS'917'
p495
aS'918'
p496
aS'919'
p497
asS'18.17'
p498
(lp499
S'930'
p500
aS'931'
p501
aS'932'
p502
aS'933'
p503
aS'934'
p504
aS'935'
p505
aS'936'
p506
aS'937'
p507
aS'938'
p508
aS'939'
p509
asS'18.16'
p510
(lp511
S'925'
p512
aS'926'
p513
aS'927'
p514
aS'928'
p515
aS'929'
p516
asS'18.19'
p517
(lp518
S'950'
p519
aS'951'
p520
aS'952'
p521
aS'953'
p522
aS'954'
p523
aS'955'
p524
aS'956'
p525
aS'957'
p526
asS'18.18'
p527
(lp528
S'940'
p529
aS'941'
p530
aS'942'
p531
aS'943'
p532
aS'944'
p533
aS'945'
p534
aS'946'
p535
aS'947'
p536
aS'948'
p537
aS'949'
p538
asS'19.4'
p539
(lp540
S'E820'
p541
aS'E821'
p542
aS'E822'
p543
aS'E823'
p544
aS'E824'
p545
aS'E825'
p546
asS'19.5'
p547
(lp548
S'E826'
p549
aS'E827'
p550
aS'E828'
p551
aS'E829'
p552
asS'19.6'
p553
(lp554
S'E830'
p555
aS'E831'
p556
aS'E832'
p557
aS'E833'
p558
aS'E834'
p559
aS'E835'
p560
aS'E836'
p561
aS'E837'
p562
aS'E838'
p563
asS'19.7'
p564
(lp565
S'E840'
p566
aS'E841'
p567
aS'E842'
p568
aS'E843'
p569
aS'E844'
p570
aS'E845'
p571
asS'19.1'
p572
(lp573
S'E000'
p574
aS'E001'
p575
aS'E002'
p576
aS'E003'
p577
aS'E004'
p578
aS'E005'
p579
aS'E006'
p580
aS'E007'
p581
aS'E008'
p582
aS'E009'
p583
aS'E010'
p584
aS'E011'
p585
aS'E012'
p586
aS'E013'
p587
aS'E014'
p588
aS'E015'
p589
aS'E016'
p590
aS'E017'
p591
aS'E018'
p592
aS'E019'
p593
aS'E020'
p594
aS'E021'
p595
aS'E022'
p596
aS'E023'
p597
aS'E024'
p598
aS'E025'
p599
aS'E026'
p600
aS'E027'
p601
aS'E028'
p602
aS'E029'
p603
aS'E030'
p604
asS'19.2'
p605
(lp606
S'E800'
p607
aS'E801'
p608
aS'E802'
p609
aS'E803'
p610
aS'E804'
p611
aS'E805'
p612
aS'E806'
p613
aS'E807'
p614
asS'19.3'
p615
(lp616
S'E810'
p617
aS'E811'
p618
aS'E812'
p619
aS'E813'
p620
aS'E814'
p621
aS'E815'
p622
aS'E816'
p623
aS'E817'
p624
aS'E818'
p625
aS'E819'
p626
asS'19.8'
p627
(lp628
S'E846'
p629
aS'E847'
p630
aS'E848'
p631
asS'19.9'
p632
(lp633
S'E849'
p634
asS'13.2'
p635
(lp636
S'690'
p637
aS'691'
p638
aS'692'
p639
aS'693'
p640
aS'694'
p641
aS'695'
p642
aS'696'
p643
aS'697'
p644
aS'698'
p645
asS'13.3'
p646
(lp647
S'700'
p648
aS'701'
p649
aS'702'
p650
aS'703'
p651
aS'704'
p652
aS'705'
p653
aS'706'
p654
aS'707'
p655
aS'708'
p656
aS'709'
p657
asS'13.1'
p658
(lp659
S'680'
p660
aS'681'
p661
aS'682'
p662
aS'683'
p663
aS'684'
p664
aS'685'
p665
aS'686'
p666
asS'5.1'
p667
(lp668
S'290'
p669
aS'291'
p670
aS'292'
p671
aS'293'
p672
aS'294'
p673
asS'5.2'
p674
(lp675
S'295'
p676
aS'296'
p677
aS'297'
p678
aS'298'
p679
aS'299'
p680
asS'5.3'
p681
(lp682
S'300'
p683
asS'5.4'
p684
(lp685
S'301'
p686
asS'5.5'
p687
(lp688
S'302'
p689
asS'5.6'
p690
(lp691
S'303'
p692
aS'304'
p693
aS'305'
p694
asS'5.7'
p695
(lp696
S'306'
p697
aS'307'
p698
aS'308'
p699
aS'309'
p700
aS'310'
p701
aS'311'
p702
asS'5.8'
p703
(lp704
S'312'
p705
aS'313'
p706
aS'314'
p707
aS'315'
p708
aS'316'
p709
asS'11.5'
p710
(lp711
S'614'
p712
aS'615'
p713
aS'616'
p714
asS'11.6'
p715
(lp716
S'617'
p717
aS'618'
p718
aS'619'
p719
aS'620'
p720
aS'621'
p721
aS'622'
p722
aS'623'
p723
aS'624'
p724
aS'625'
p725
aS'626'
p726
aS'627'
p727
aS'628'
p728
aS'629'
p729
asS'11.1'
p730
(lp731
S'580'
p732
aS'581'
p733
aS'582'
p734
aS'583'
p735
aS'584'
p736
aS'585'
p737
aS'586'
p738
aS'587'
p739
aS'588'
p740
aS'589'
p741
asS'11.2'
p742
(lp743
S'590'
p744
aS'591'
p745
aS'592'
p746
aS'593'
p747
aS'594'
p748
aS'595'
p749
aS'596'
p750
aS'597'
p751
aS'598'
p752
aS'599'
p753
asS'11.3'
p754
(lp755
S'600'
p756
aS'601'
p757
aS'602'
p758
aS'603'
p759
aS'604'
p760
aS'605'
p761
aS'606'
p762
aS'607'
p763
aS'608'
p764
asS'17.2'
p765
(lp766
S'790'
p767
aS'791'
p768
aS'792'
p769
aS'793'
p770
aS'794'
p771
aS'795'
p772
aS'796'
p773
asS'17.3'
p774
(lp775
S'797'
p776
aS'798'
p777
aS'799'
p778
asS'17.1'
p779
(lp780
S'780'
p781
aS'781'
p782
aS'782'
p783
aS'783'
p784
aS'784'
p785
aS'785'
p786
aS'786'
p787
aS'787'
p788
aS'788'
p789
aS'789'
p790
asS'15.1'
p791
(lp792
S'740'
p793
aS'741'
p794
aS'742'
p795
asS'15.2'
p796
(lp797
S'743'
p798
aS'744'
p799
asS'15.3'
p800
(lp801
S'745'
p802
aS'746'
p803
aS'747'
p804
asS'15.4'
p805
(lp806
S'748'
p807
asS'15.5'
p808
(lp809
S'749'
p810
aS'750'
p811
aS'751'
p812
asS'15.6'
p813
(lp814
S'752'
p815
asS'15.7'
p816
(lp817
S'753'
p818
asS'15.8'
p819
(lp820
S'754'
p821
aS'755'
p822
aS'756'
p823
asS'15.9'
p824
(lp825
S'757'
p826
asS'11.4'
p827
(lp828
S'610'
p829
aS'611'
p830
aS'612'
p831
asS'5.9'
p832
(lp833
S'317'
p834
aS'318'
p835
aS'319'
p836
asS'12.3'
p837
(lp838
S'640'
p839
aS'641'
p840
aS'642'
p841
aS'643'
p842
aS'644'
p843
aS'645'
p844
aS'646'
p845
aS'647'
p846
aS'648'
p847
aS'649'
p848
asS'6.6'
p849
(lp850
S'350'
p851
aS'351'
p852
aS'352'
p853
aS'353'
p854
aS'354'
p855
aS'355'
p856
aS'356'
p857
aS'357'
p858
aS'358'
p859
aS'359'
p860
asS'6.5'
p861
(lp862
S'340'
p863
aS'341'
p864
aS'342'
p865
aS'343'
p866
aS'344'
p867
aS'345'
p868
aS'346'
p869
aS'347'
p870
aS'348'
p871
aS'349'
p872
asS'6.4'
p873
(lp874
S'339'
p875
asS'6.3'
p876
(lp877
S'338'
p878
asS'6.2'
p879
(lp880
S'330'
p881
aS'331'
p882
aS'332'
p883
aS'333'
p884
aS'334'
p885
aS'335'
p886
aS'336'
p887
aS'337'
p888
asS'6.1'
p889
(lp890
S'320'
p891
aS'321'
p892
aS'322'
p893
aS'323'
p894
aS'324'
p895
aS'325'
p896
aS'326'
p897
aS'327'
p898
asS'12.4'
p899
(lp900
S'650'
p901
aS'651'
p902
aS'652'
p903
aS'653'
p904
aS'654'
p905
aS'655'
p906
aS'656'
p907
aS'657'
p908
aS'658'
p909
aS'659'
p910
asS'10.1'
p911
(lp912
S'520'
p913
aS'521'
p914
aS'522'
p915
aS'523'
p916
aS'524'
p917
aS'525'
p918
aS'526'
p919
aS'527'
p920
aS'528'
p921
aS'529'
p922
asS'10.3'
p923
(lp924
S'540'
p925
aS'541'
p926
aS'542'
p927
aS'543'
p928
asS'10.2'
p929
(lp930
S'530'
p931
aS'531'
p932
aS'532'
p933
aS'533'
p934
aS'534'
p935
aS'535'
p936
aS'536'
p937
aS'537'
p938
aS'538'
p939
aS'539'
p940
asS'10.5'
p941
(lp942
S'555'
p943
aS'556'
p944
aS'557'
p945
aS'558'
p946
asS'10.4'
p947
(lp948
S'550'
p949
aS'551'
p950
aS'552'
p951
aS'553'
p952
asS'10.7'
p953
(lp954
S'570'
p955
aS'571'
p956
aS'572'
p957
aS'573'
p958
aS'574'
p959
aS'575'
p960
aS'576'
p961
aS'577'
p962
aS'578'
p963
aS'579'
p964
asS'10.6'
p965
(lp966
S'560'
p967
aS'561'
p968
aS'562'
p969
aS'563'
p970
aS'564'
p971
aS'565'
p972
aS'566'
p973
aS'567'
p974
aS'568'
p975
aS'569'
p976
asS'16.2'
p977
(lp978
S'764'
p979
aS'765'
p980
aS'766'
p981
aS'767'
p982
aS'768'
p983
aS'769'
p984
aS'770'
p985
aS'771'
p986
aS'772'
p987
aS'773'
p988
aS'774'
p989
aS'775'
p990
aS'776'
p991
aS'777'
p992
aS'778'
p993
aS'779'
p994
asS'16.1'
p995
(lp996
S'760'
p997
aS'761'
p998
aS'762'
p999
aS'763'
p1000
asS'2.13'
p1001
(lp1002
S'239'
p1003
asS'2.12'
p1004
(lp1005
S'235'
p1006
aS'236'
p1007
aS'237'
p1008
aS'238'
p1009
asS'2.11'
p1010
(lp1011
S'230'
p1012
aS'231'
p1013
aS'232'
p1014
aS'233'
p1015
aS'234'
p1016
asS'2.10'
p1017
(lp1018
S'210'
p1019
aS'211'
p1020
aS'212'
p1021
aS'213'
p1022
aS'214'
p1023
aS'215'
p1024
aS'216'
p1025
aS'217'
p1026
aS'218'
p1027
aS'219'
p1028
aS'220'
p1029
aS'221'
p1030
aS'222'
p1031
aS'223'
p1032
aS'224'
p1033
aS'225'
p1034
aS'226'
p1035
aS'227'
p1036
aS'228'
p1037
aS'229'
p1038
asS'14.4'
p1039
(lp1040
S'730'
p1041
aS'731'
p1042
aS'732'
p1043
aS'733'
p1044
aS'734'
p1045
aS'735'
p1046
aS'736'
p1047
aS'737'
p1048
aS'738'
p1049
aS'739'
p1050
asS'14.1'
p1051
(lp1052
S'710'
p1053
aS'711'
p1054
aS'712'
p1055
aS'713'
p1056
aS'714'
p1057
aS'715'
p1058
aS'716'
p1059
aS'717'
p1060
aS'718'
p1061
aS'719'
p1062
asS'14.3'
p1063
(lp1064
S'725'
p1065
aS'726'
p1066
aS'727'
p1067
aS'728'
p1068
aS'729'
p1069
asS'14.2'
p1070
(lp1071
S'720'
p1072
aS'721'
p1073
aS'722'
p1074
aS'723'
p1075
aS'724'
p1076
asS'3.4'
p1077
(lp1078
S'270'
p1079
aS'271'
p1080
aS'272'
p1081
aS'273'
p1082
aS'274'
p1083
aS'275'
p1084
aS'276'
p1085
aS'277'
p1086
aS'278'
p1087
aS'279'
p1088
asS'3.2'
p1089
(lp1090
S'249'
p1091
aS'250'
p1092
aS'251'
p1093
aS'252'
p1094
aS'253'
p1095
aS'254'
p1096
aS'255'
p1097
aS'256'
p1098
aS'257'
p1099
aS'258'
p1100
aS'259'
p1101
asS'3.3'
p1102
(lp1103
S'260'
p1104
aS'261'
p1105
aS'262'
p1106
aS'263'
p1107
aS'264'
p1108
aS'265'
p1109
aS'266'
p1110
aS'267'
p1111
aS'268'
p1112
aS'269'
p1113
asS'3.1'
p1114
(lp1115
S'240'
p1116
aS'241'
p1117
aS'242'
p1118
aS'243'
p1119
aS'244'
p1120
aS'245'
p1121
aS'246'
p1122
asS'20.1'
p1123
(lp1124
S'V00'
p1125
aS'V01'
p1126
aS'V02'
p1127
aS'V03'
p1128
aS'V04'
p1129
aS'V05'
p1130
aS'V06'
p1131
asS'20.2'
p1132
(lp1133
S'V07'
p1134
aS'V08'
p1135
aS'V09'
p1136
asS'20.3'
p1137
(lp1138
S'V10'
p1139
aS'V11'
p1140
aS'V12'
p1141
aS'V13'
p1142
aS'V14'
p1143
aS'V15'
p1144
aS'V16'
p1145
aS'V17'
p1146
aS'V18'
p1147
aS'V19'
p1148
asS'20.4'
p1149
(lp1150
S'V20'
p1151
aS'V21'
p1152
aS'V22'
p1153
aS'V23'
p1154
aS'V24'
p1155
aS'V25'
p1156
aS'V26'
p1157
aS'V27'
p1158
aS'V28'
p1159
aS'V29'
p1160
asS'20.5'
p1161
(lp1162
S'V30'
p1163
aS'V31'
p1164
aS'V32'
p1165
aS'V33'
p1166
aS'V34'
p1167
aS'V35'
p1168
aS'V36'
p1169
aS'V37'
p1170
aS'V38'
p1171
aS'V39'
p1172
asS'20.6'
p1173
(lp1174
S'V40'
p1175
aS'V41'
p1176
aS'V42'
p1177
aS'V43'
p1178
aS'V44'
p1179
aS'V45'
p1180
aS'V46'
p1181
aS'V47'
p1182
aS'V48'
p1183
aS'V49'
p1184
asS'20.7'
p1185
(lp1186
S'V50'
p1187
aS'V51'
p1188
aS'V52'
p1189
aS'V53'
p1190
aS'V54'
p1191
aS'V55'
p1192
aS'V56'
p1193
aS'V57'
p1194
aS'V58'
p1195
aS'V59'
p1196
asS'20.8'
p1197
(lp1198
S'V60'
p1199
aS'V61'
p1200
aS'V62'
p1201
aS'V63'
p1202
aS'V64'
p1203
aS'V65'
p1204
aS'V66'
p1205
aS'V67'
p1206
aS'V68'
p1207
aS'V69'
p1208
asS'20.9'
p1209
(lp1210
S'V70'
p1211
aS'V71'
p1212
aS'V72'
p1213
aS'V73'
p1214
aS'V74'
p1215
aS'V75'
p1216
aS'V76'
p1217
aS'V77'
p1218
aS'V78'
p1219
aS'V79'
p1220
aS'V80'
p1221
aS'V81'
p1222
aS'V82'
p1223
asS'19.16'
p1224
(lp1225
S'E900'
p1226
aS'E901'
p1227
aS'E902'
p1228
aS'E903'
p1229
aS'E904'
p1230
aS'E905'
p1231
aS'E906'
p1232
aS'E907'
p1233
aS'E908'
p1234
aS'E909'
p1235
asS'19.17'
p1236
(lp1237
S'E910'
p1238
aS'E911'
p1239
aS'E912'
p1240
aS'E913'
p1241
aS'E914'
p1242
aS'E915'
p1243
asS'19.14'
p1244
(lp1245
S'E880'
p1246
aS'E881'
p1247
aS'E882'
p1248
aS'E883'
p1249
aS'E884'
p1250
aS'E885'
p1251
aS'E886'
p1252
aS'E887'
p1253
aS'E888'
p1254
asS'19.15'
p1255
(lp1256
S'E890'
p1257
aS'E891'
p1258
aS'E892'
p1259
aS'E893'
p1260
aS'E894'
p1261
aS'E895'
p1262
aS'E896'
p1263
aS'E897'
p1264
aS'E898'
p1265
aS'E899'
p1266
asS'19.12'
p1267
(lp1268
S'E870'
p1269
aS'E871'
p1270
aS'E872'
p1271
aS'E873'
p1272
aS'E874'
p1273
aS'E875'
p1274
aS'E876'
p1275
asS'19.13'
p1276
(lp1277
S'E878'
p1278
aS'E879'
p1279
asS'19.10'
p1280
(lp1281
S'E850'
p1282
aS'E851'
p1283
aS'E852'
p1284
aS'E853'
p1285
aS'E854'
p1286
aS'E855'
p1287
aS'E856'
p1288
aS'E857'
p1289
aS'E858'
p1290
asS'19.11'
p1291
(lp1292
S'E860'
p1293
aS'E861'
p1294
aS'E862'
p1295
aS'E863'
p1296
aS'E864'
p1297
aS'E865'
p1298
aS'E866'
p1299
aS'E867'
p1300
aS'E868'
p1301
aS'E869'
p1302
asS'19.18'
p1303
(lp1304
S'E916'
p1305
aS'E917'
p1306
aS'E918'
p1307
aS'E919'
p1308
aS'E920'
p1309
aS'E921'
p1310
aS'E922'
p1311
aS'E923'
p1312
aS'E924'
p1313
aS'E925'
p1314
aS'E926'
p1315
aS'E927'
p1316
aS'E928'
p1317
asS'19.19'
p1318
(lp1319
S'E929'
p1320
asS'20.12'
p1321
(lp1322
S'V86'
p1323
asS'20.13'
p1324
(lp1325
S'V87'
p1326
asS'20.10'
p1327
(lp1328
S'V83'
p1329
aS'V84'
p1330
asS'20.11'
p1331
(lp1332
S'V85'
p1333
asS'20.16'
p1334
(lp1335
S'V90'
p1336
asS'20.17'
p1337
(lp1338
S'V91'
p1339
asS'20.14'
p1340
(lp1341
S'V88'
p1342
asS'20.15'
p1343
(lp1344
S'V89'
p1345
asS'9.4'
p1346
(lp1347
S'490'
p1348
aS'491'
p1349
aS'492'
p1350
aS'493'
p1351
aS'494'
p1352
aS'495'
p1353
aS'496'
p1354
asS'9.5'
p1355
(lp1356
S'500'
p1357
aS'501'
p1358
aS'502'
p1359
aS'503'
p1360
aS'504'
p1361
aS'505'
p1362
aS'506'
p1363
aS'507'
p1364
aS'508'
p1365
asS'9.6'
p1366
(lp1367
S'510'
p1368
aS'511'
p1369
aS'512'
p1370
aS'513'
p1371
aS'514'
p1372
aS'515'
p1373
aS'516'
p1374
aS'517'
p1375
aS'518'
p1376
aS'519'
p1377
asS'9.1'
p1378
(lp1379
S'460'
p1380
aS'461'
p1381
aS'462'
p1382
aS'463'
p1383
aS'464'
p1384
aS'465'
p1385
aS'466'
p1386
asS'9.2'
p1387
(lp1388
S'470'
p1389
aS'471'
p1390
aS'472'
p1391
aS'473'
p1392
aS'474'
p1393
aS'475'
p1394
aS'476'
p1395
aS'477'
p1396
aS'478'
p1397
asS'9.3'
p1398
(lp1399
S'480'
p1400
aS'481'
p1401
aS'482'
p1402
aS'483'
p1403
aS'484'
p1404
aS'485'
p1405
aS'486'
p1406
aS'487'
p1407
aS'488'
p1408
asS'18.9'
p1409
(lp1410
S'870'
p1411
aS'871'
p1412
aS'872'
p1413
aS'873'
p1414
aS'874'
p1415
aS'875'
p1416
aS'876'
p1417
aS'877'
p1418
aS'878'
p1419
aS'879'
p1420
asS'18.8'
p1421
(lp1422
S'860'
p1423
aS'861'
p1424
aS'862'
p1425
aS'863'
p1426
aS'864'
p1427
aS'865'
p1428
aS'866'
p1429
aS'867'
p1430
aS'868'
p1431
aS'869'
p1432
asS'18.1'
p1433
(lp1434
S'800'
p1435
aS'801'
p1436
aS'802'
p1437
aS'803'
p1438
aS'804'
p1439
asS'18.3'
p1440
(lp1441
S'810'
p1442
aS'811'
p1443
aS'812'
p1444
aS'813'
p1445
aS'814'
p1446
aS'815'
p1447
aS'816'
p1448
aS'817'
p1449
aS'818'
p1450
aS'819'
p1451
asS'18.2'
p1452
(lp1453
S'805'
p1454
aS'806'
p1455
aS'807'
p1456
aS'808'
p1457
aS'809'
p1458
asS'18.5'
p1459
(lp1460
S'830'
p1461
aS'831'
p1462
aS'832'
p1463
aS'833'
p1464
aS'834'
p1465
aS'835'
p1466
aS'836'
p1467
aS'837'
p1468
aS'838'
p1469
aS'839'
p1470
asS'18.4'
p1471
(lp1472
S'820'
p1473
aS'821'
p1474
aS'822'
p1475
aS'823'
p1476
aS'824'
p1477
aS'825'
p1478
aS'826'
p1479
aS'827'
p1480
aS'828'
p1481
aS'829'
p1482
asS'18.7'
p1483
(lp1484
S'850'
p1485
aS'851'
p1486
aS'852'
p1487
aS'853'
p1488
aS'854'
p1489
asS'18.6'
p1490
(lp1491
S'840'
p1492
aS'841'
p1493
aS'842'
p1494
aS'843'
p1495
aS'844'
p1496
aS'845'
p1497
aS'846'
p1498
aS'847'
p1499
aS'848'
p1500
asS'1.4'
p1501
(lp1502
S'030'
p1503
aS'031'
p1504
aS'032'
p1505
aS'033'
p1506
aS'034'
p1507
aS'035'
p1508
aS'036'
p1509
aS'037'
p1510
aS'038'
p1511
aS'039'
p1512
aS'040'
p1513
aS'041'
p1514
asS'1.5'
p1515
(lp1516
S'042'
p1517
aS'043'
p1518
aS'044'
p1519
asS'1.6'
p1520
(lp1521
S'045'
p1522
aS'046'
p1523
aS'047'
p1524
aS'048'
p1525
aS'049'
p1526
asS'1.7'
p1527
(lp1528
S'050'
p1529
aS'051'
p1530
aS'052'
p1531
aS'053'
p1532
aS'054'
p1533
aS'055'
p1534
aS'056'
p1535
aS'057'
p1536
aS'058'
p1537
aS'059'
p1538
asS'1.1'
p1539
(lp1540
S'001'
p1541
aS'002'
p1542
aS'003'
p1543
aS'004'
p1544
aS'005'
p1545
aS'006'
p1546
aS'007'
p1547
aS'008'
p1548
aS'009'
p1549
asS'1.2'
p1550
(lp1551
S'010'
p1552
aS'011'
p1553
aS'012'
p1554
aS'013'
p1555
aS'014'
p1556
aS'015'
p1557
aS'016'
p1558
aS'017'
p1559
aS'018'
p1560
asS'1.3'
p1561
(lp1562
S'020'
p1563
aS'021'
p1564
aS'022'
p1565
aS'023'
p1566
aS'024'
p1567
aS'025'
p1568
aS'026'
p1569
aS'027'
p1570
asS'1.8'
p1571
(lp1572
S'060'
p1573
aS'061'
p1574
aS'062'
p1575
aS'063'
p1576
aS'064'
p1577
aS'065'
p1578
aS'066'
p1579
asS'1.9'
p1580
(lp1581
S'070'
p1582
aS'071'
p1583
aS'072'
p1584
aS'073'
p1585
aS'074'
p1586
aS'075'
p1587
aS'076'
p1588
aS'077'
p1589
aS'078'
p1590
aS'079'
p1591
asS'4.1'
p1592
(lp1593
S'280'
p1594
aS'281'
p1595
aS'282'
p1596
aS'283'
p1597
aS'284'
p1598
aS'285'
p1599
asS'4.3'
p1600
(lp1601
S'288'
p1602
aS'289'
p1603
asS'4.2'
p1604
(lp1605
S'286'
p1606
aS'287'
p1607
as.